target datalayout = "e-m:e-p270:32:32-p271:32:32-p272:64:64-i64:64-i128:128-f80:128-n8:16:32:64-S128"
target triple = "x86_64-pc-linux-gnu"

%struct.PQExpBufferData = type { ptr, i64, i64 }

@.str.94 = private unnamed_addr constant [5 x i8] c"    \00", align 1

; Function Attrs: nounwind uwtable
define internal ptr @indent_lines(ptr noundef %0) #0 {
  %2 = alloca ptr, align 8
  %3 = alloca %struct.PQExpBufferData, align 8
  %4 = alloca ptr, align 8
  %5 = alloca ptr, align 8
  store ptr %0, ptr %2, align 8
  call void @llvm.lifetime.start.p0(i64 24, ptr %3) #10
  call void @llvm.lifetime.start.p0(i64 8, ptr %4) #10
  call void @llvm.lifetime.start.p0(i64 8, ptr %5) #10
  call void @initPQExpBuffer(ptr noundef %3)
  call void @appendPQExpBufferStr(ptr noundef %3, ptr noundef @.str.94)
  %6 = load ptr, ptr %2, align 8
  store ptr %6, ptr %4, align 8
  br label %7

7:                                                ; preds = %27, %1
  %8 = load ptr, ptr %4, align 8
  %9 = load i8, ptr %8, align 1
  %10 = icmp ne i8 %9, 0
  br i1 %10, label %11, label %30

11:                                               ; preds = %7
  %12 = load ptr, ptr %4, align 8
  %13 = load i8, ptr %12, align 1
  call void @appendPQExpBufferChar(ptr noundef %3, i8 noundef signext %13)
  %14 = load ptr, ptr %4, align 8
  %15 = getelementptr inbounds i8, ptr %14, i64 0
  %16 = load i8, ptr %15, align 1
  %17 = sext i8 %16 to i32
  %18 = icmp eq i32 %17, 10
  br i1 %18, label %19, label %26

19:                                               ; preds = %11
  %20 = load ptr, ptr %4, align 8
  %21 = getelementptr inbounds i8, ptr %20, i64 1
  %22 = load i8, ptr %21, align 1
  %23 = sext i8 %22 to i32
  %24 = icmp ne i32 %23, 0
  br i1 %24, label %25, label %26

25:                                               ; preds = %19
  call void @appendPQExpBufferStr(ptr noundef %3, ptr noundef @.str.94)
  br label %26

26:                                               ; preds = %25, %19, %11
  br label %27

27:                                               ; preds = %26
  %28 = load ptr, ptr %4, align 8
  %29 = getelementptr inbounds nuw i8, ptr %28, i32 1
  store ptr %29, ptr %4, align 8
  br label %7, !llvm.loop !15

30:                                               ; preds = %7
  %31 = getelementptr inbounds nuw %struct.PQExpBufferData, ptr %3, i32 0, i32 0
  %32 = load ptr, ptr %31, align 8
  %33 = call ptr @pstrdup(ptr noundef %32)
  store ptr %33, ptr %5, align 8
  call void @termPQExpBuffer(ptr noundef %3)
  %34 = load ptr, ptr %5, align 8
  call void @llvm.lifetime.end.p0(i64 8, ptr %5) #10
  call void @llvm.lifetime.end.p0(i64 8, ptr %4) #10
  call void @llvm.lifetime.end.p0(i64 24, ptr %3) #10
  ret ptr %34
}