; Function Attrs: nounwind uwtable
define internal fastcc ptr @indent_lines(ptr noundef readonly captures(none) %0) unnamed_addr #0 {
  %2 = alloca %struct.PQExpBufferData, align 8
  call void @llvm.lifetime.start.p0(i64 24, ptr nonnull %2) #11
  call void @initPQExpBuffer(ptr noundef nonnull %2) #11
  call void @appendPQExpBufferStr(ptr noundef nonnull %2, ptr noundef nonnull @.str.94) #11
  %3 = load i8, ptr %0, align 1
  %.not9 = icmp eq i8 %3, 0
  br i1 %.not9, label %._crit_edge, label %.lr.ph

.lr.ph:                                           ; preds = %1, %11
  %4 = phi i8 [ %13, %11 ], [ %3, %1 ]
  %.010 = phi ptr [ %12, %11 ], [ %0, %1 ]
  call void @appendPQExpBufferChar(ptr noundef nonnull %2, i8 noundef signext %4) #11
  %5 = load i8, ptr %.010, align 1
  %6 = icmp eq i8 %5, 10
  br i1 %6, label %7, label %11

7:                                                ; preds = %.lr.ph
  %8 = getelementptr inbounds nuw i8, ptr %.010, i64 1
  %9 = load i8, ptr %8, align 1
  %.not8 = icmp eq i8 %9, 0
  br i1 %.not8, label %11, label %10

10:                                               ; preds = %7
  call void @appendPQExpBufferStr(ptr noundef nonnull %2, ptr noundef nonnull @.str.94) #11
  br label %11

11:                                               ; preds = %.lr.ph, %7, %10
  %12 = getelementptr inbounds nuw i8, ptr %.010, i64 1
  %13 = load i8, ptr %12, align 1
  %.not = icmp eq i8 %13, 0
  br i1 %.not, label %._crit_edge, label %.lr.ph, !llvm.loop !16

._crit_edge:                                      ; preds = %11, %1
  %14 = load ptr, ptr %2, align 8
  %15 = call ptr @pstrdup(ptr noundef %14) #11
  call void @termPQExpBuffer(ptr noundef nonnull %2) #11
  call void @llvm.lifetime.end.p0(i64 24, ptr nonnull %2) #11
  ret ptr %15
}